Certificate:
    Data:
        Version: 3 (0x2)
        Serial Number:
            a5:a6:db:b3:db:57:e9:d4:8d:d0:ff:1b:f6:5c:86:59
    Signature Algorithm: sha256WithRSAEncryption
        Issuer: CN=jaisoft
        Validity
            Not Before: Oct 24 12:12:44 2022 GMT
            Not After : Jan 26 12:12:44 2025 GMT
        Subject: CN=client1.domain.tld
        Subject Public Key Info:
            Public Key Algorithm: rsaEncryption
                Public-Key: (2048 bit)
                Modulus:
                    00:be:87:f6:16:16:7b:7c:1a:b0:45:4c:be:0b:23:
                    3c:6f:fe:36:24:bb:54:a7:d9:6c:1b:59:35:2e:7a:
                    1e:fc:ae:a5:cc:f3:62:27:c3:d4:55:32:00:25:d8:
                    85:f0:a2:5f:76:74:68:c4:79:18:46:c7:de:cb:54:
                    a7:08:29:c7:0e:d3:0f:20:f0:e3:c8:03:ba:fa:0c:
                    11:67:83:a1:fc:f2:e4:45:1d:e5:9d:9f:32:00:5a:
                    2e:11:51:a3:41:b3:81:32:e4:5d:a4:7d:1b:ad:12:
                    cf:6d:b8:05:85:ad:6e:5f:c8:24:df:ac:1e:94:08:
                    91:a2:5e:68:05:d0:57:3a:0c:61:e3:32:73:39:0d:
                    d5:67:94:8e:a5:86:ff:de:bd:8a:96:65:14:72:ec:
                    8e:df:50:17:52:db:f8:59:72:27:d1:ff:14:96:47:
                    2b:db:e8:c1:85:71:60:8c:d9:01:2f:99:e0:0e:c1:
                    f2:22:75:d7:b2:a8:eb:b2:39:88:f8:5e:f9:96:af:
                    dd:29:58:36:e6:0c:27:52:57:b1:e2:28:48:37:ec:
                    d4:4d:12:48:06:1b:e0:ec:b9:3a:15:d8:3a:bd:6b:
                    82:4c:6f:7b:12:d3:df:46:08:0e:b9:45:2f:1f:76:
                    dc:f4:39:ad:d1:3c:f0:14:db:9b:4b:45:1a:71:86:
                    aa:8f
                Exponent: 65537 (0x10001)
        X509v3 extensions:
            X509v3 Basic Constraints: 
                CA:FALSE
            X509v3 Subject Key Identifier: 
                D3:40:68:42:9A:3F:0E:3B:77:C8:F9:9D:F6:01:1A:A2:C7:24:07:1A
            X509v3 Authority Key Identifier: 
                keyid:EC:C1:F7:E4:ED:C6:C7:DD:4A:CA:11:F3:3F:E2:6B:55:0A:AD:22:46
                DirName:/CN=jaisoft
                serial:9C:2C:09:1A:86:21:67:DD

            X509v3 Extended Key Usage: 
                TLS Web Client Authentication
            X509v3 Key Usage: 
                Digital Signature
    Signature Algorithm: sha256WithRSAEncryption
         39:af:e4:e9:18:0c:f6:0b:f8:7f:44:3c:3d:e4:e1:2a:7c:36:
         34:16:50:84:6c:1f:fc:01:e9:e8:61:6e:63:a4:ca:e4:b2:f1:
         d6:59:ee:43:68:45:79:cb:da:26:25:75:0c:4b:49:4f:de:a4:
         3e:b5:ec:df:2b:7b:5c:59:85:09:d9:88:ed:b3:ed:20:38:ec:
         d8:7e:b3:71:3a:c6:1d:59:95:e4:6d:86:ec:5d:c9:d7:4f:bb:
         e1:49:f7:1d:47:31:50:1f:2d:0f:0a:fb:09:fb:75:95:55:50:
         dd:bf:30:cc:e0:23:69:7e:2d:9e:a1:fd:e4:26:3a:7a:67:fb:
         2c:84:99:57:fc:e8:65:69:53:34:39:3a:40:9c:32:a9:33:dd:
         b3:6b:0b:08:b3:59:cf:f6:ff:a3:f5:f3:5f:41:94:18:34:54:
         66:25:0e:08:61:f2:e2:c4:68:18:f1:f3:62:1f:38:fc:77:3f:
         c0:26:6d:fd:25:a8:23:25:dc:47:39:d8:c1:82:5f:a5:41:47:
         2c:f8:61:0f:dc:4b:6b:40:a8:dc:5b:e0:b1:89:28:7f:d9:60:
         f3:d7:7d:e3:18:b4:fc:2b:e4:10:96:b6:c4:ad:49:45:5f:03:
         97:6a:cc:18:55:db:b8:2f:b5:ca:7a:61:c2:12:57:d3:62:2e:
         d1:bc:19:5b
-----BEGIN CERTIFICATE-----
MIIDTjCCAjagAwIBAgIRAKWm27PbV+nUjdD/G/ZchlkwDQYJKoZIhvcNAQELBQAw
EjEQMA4GA1UEAwwHamFpc29mdDAeFw0yMjEwMjQxMjEyNDRaFw0yNTAxMjYxMjEy
NDRaMB0xGzAZBgNVBAMMEmNsaWVudDEuZG9tYWluLnRsZDCCASIwDQYJKoZIhvcN
AQEBBQADggEPADCCAQoCggEBAL6H9hYWe3wasEVMvgsjPG/+NiS7VKfZbBtZNS56
HvyupczzYifD1FUyACXYhfCiX3Z0aMR5GEbH3stUpwgpxw7TDyDw48gDuvoMEWeD
ofzy5EUd5Z2fMgBaLhFRo0GzgTLkXaR9G60Sz224BYWtbl/IJN+sHpQIkaJeaAXQ
VzoMYeMyczkN1WeUjqWG/969ipZlFHLsjt9QF1Lb+FlyJ9H/FJZHK9vowYVxYIzZ
AS+Z4A7B8iJ117Ko67I5iPhe+Zav3SlYNuYMJ1JXseIoSDfs1E0SSAYb4Oy5OhXY
Or1rgkxvexLT30YIDrlFLx923PQ5rdE88BTbm0tFGnGGqo8CAwEAAaOBkzCBkDAJ
BgNVHRMEAjAAMB0GA1UdDgQWBBTTQGhCmj8OO3fI+Z32ARqixyQHGjBCBgNVHSME
OzA5gBTswffk7cbH3UrKEfM/4mtVCq0iRqEWpBQwEjEQMA4GA1UEAwwHamFpc29m
dIIJAJwsCRqGIWfdMBMGA1UdJQQMMAoGCCsGAQUFBwMCMAsGA1UdDwQEAwIHgDAN
BgkqhkiG9w0BAQsFAAOCAQEAOa/k6RgM9gv4f0Q8PeThKnw2NBZQhGwf/AHp6GFu
Y6TK5LLx1lnuQ2hFecvaJiV1DEtJT96kPrXs3yt7XFmFCdmI7bPtIDjs2H6zcTrG
HVmV5G2G7F3J10+74Un3HUcxUB8tDwr7Cft1lVVQ3b8wzOAjaX4tnqH95CY6emf7
LISZV/zoZWlTNDk6QJwyqTPds2sLCLNZz/b/o/XzX0GUGDRUZiUOCGHy4sRoGPHz
Yh84/Hc/wCZt/SWoIyXcRznYwYJfpUFHLPhhD9xLa0Co3FvgsYkof9lg89d94xi0
/CvkEJa2xK1JRV8Dl2rMGFXbuC+1ynphwhJX02Iu0bwZWw==
-----END CERTIFICATE-----
